; ModuleID = '24/2636.c'
source_filename = "24/2636.c"
target datalayout = "e-m:e-p270:32:32-p271:32:32-p272:64:64-i64:64-f80:128-n8:16:32:64-S128"
target triple = "x86_64-pc-linux-gnu"

@.str = private unnamed_addr constant [3 x i8] c"%d\00", align 1
@.str.1 = private unnamed_addr constant [3 x i8] c"%s\00", align 1
@.str.2 = private unnamed_addr constant [4 x i8] c"%s\0A\00", align 1

; Function Attrs: noinline nounwind uwtable
define dso_local void @main() #0 {
  %1 = alloca i32, align 4
  %2 = alloca i32, align 4
  %3 = alloca i32, align 4
  %4 = alloca i32, align 4
  %5 = alloca [1000 x [50 x i8]], align 16
  %6 = alloca [1000 x i32], align 16
  %7 = alloca i32*, align 8
  %8 = alloca [50 x i8]*, align 8
  %9 = call i32 (i8*, ...) @__isoc99_scanf(i8* getelementptr inbounds ([3 x i8], [3 x i8]* @.str, i64 0, i64 0), i32* %1)
  %10 = getelementptr inbounds [1000 x i32], [1000 x i32]* %6, i64 0, i64 0
  store i32* %10, i32** %7, align 8
  store i32 0, i32* %2, align 4
  br label %11

11:                                               ; preds = %31, %0
  %12 = load i32, i32* %2, align 4
  %13 = load i32, i32* %1, align 4
  %14 = icmp slt i32 %12, %13
  br i1 %14, label %15, label %34

15:                                               ; preds = %11
  %16 = load i32, i32* %2, align 4
  %17 = sext i32 %16 to i64
  %18 = getelementptr inbounds [1000 x [50 x i8]], [1000 x [50 x i8]]* %5, i64 0, i64 %17
  %19 = getelementptr inbounds [50 x i8], [50 x i8]* %18, i64 0, i64 0
  %20 = call i32 (i8*, ...) @__isoc99_scanf(i8* getelementptr inbounds ([3 x i8], [3 x i8]* @.str.1, i64 0, i64 0), i8* %19)
  %21 = load i32, i32* %2, align 4
  %22 = sext i32 %21 to i64
  %23 = getelementptr inbounds [1000 x [50 x i8]], [1000 x [50 x i8]]* %5, i64 0, i64 %22
  %24 = getelementptr inbounds [50 x i8], [50 x i8]* %23, i64 0, i64 0
  %25 = call i64 @strlen(i8* %24) #3
  %26 = trunc i64 %25 to i32
  %27 = load i32*, i32** %7, align 8
  %28 = load i32, i32* %2, align 4
  %29 = sext i32 %28 to i64
  %30 = getelementptr inbounds i32, i32* %27, i64 %29
  store i32 %26, i32* %30, align 4
  br label %31

31:                                               ; preds = %15
  %32 = load i32, i32* %2, align 4
  %33 = add nsw i32 %32, 1
  store i32 %33, i32* %2, align 4
  br label %11

34:                                               ; preds = %11
  store i32 1, i32* %2, align 4
  br label %35

35:                                               ; preds = %86, %34
  %36 = load i32, i32* %2, align 4
  %37 = load i32, i32* %1, align 4
  %38 = icmp slt i32 %36, %37
  br i1 %38, label %39, label %89

39:                                               ; preds = %35
  store i32 0, i32* %3, align 4
  br label %40

40:                                               ; preds = %82, %39
  %41 = load i32, i32* %3, align 4
  %42 = load i32, i32* %1, align 4
  %43 = load i32, i32* %2, align 4
  %44 = sub nsw i32 %42, %43
  %45 = icmp slt i32 %41, %44
  br i1 %45, label %46, label %85

46:                                               ; preds = %40
  %47 = load i32*, i32** %7, align 8
  %48 = load i32, i32* %3, align 4
  %49 = sext i32 %48 to i64
  %50 = getelementptr inbounds i32, i32* %47, i64 %49
  %51 = load i32, i32* %50, align 4
  %52 = load i32*, i32** %7, align 8
  %53 = load i32, i32* %3, align 4
  %54 = sext i32 %53 to i64
  %55 = getelementptr inbounds i32, i32* %52, i64 %54
  %56 = getelementptr inbounds i32, i32* %55, i64 1
  %57 = load i32, i32* %56, align 4
  %58 = icmp sgt i32 %51, %57
  br i1 %58, label %59, label %81

59:                                               ; preds = %46
  %60 = load i32*, i32** %7, align 8
  %61 = load i32, i32* %3, align 4
  %62 = sext i32 %61 to i64
  %63 = getelementptr inbounds i32, i32* %60, i64 %62
  %64 = load i32, i32* %63, align 4
  store i32 %64, i32* %4, align 4
  %65 = load i32*, i32** %7, align 8
  %66 = load i32, i32* %3, align 4
  %67 = sext i32 %66 to i64
  %68 = getelementptr inbounds i32, i32* %65, i64 %67
  %69 = getelementptr inbounds i32, i32* %68, i64 1
  %70 = load i32, i32* %69, align 4
  %71 = load i32*, i32** %7, align 8
  %72 = load i32, i32* %3, align 4
  %73 = sext i32 %72 to i64
  %74 = getelementptr inbounds i32, i32* %71, i64 %73
  store i32 %70, i32* %74, align 4
  %75 = load i32, i32* %4, align 4
  %76 = load i32*, i32** %7, align 8
  %77 = load i32, i32* %3, align 4
  %78 = sext i32 %77 to i64
  %79 = getelementptr inbounds i32, i32* %76, i64 %78
  %80 = getelementptr inbounds i32, i32* %79, i64 1
  store i32 %75, i32* %80, align 4
  br label %81

81:                                               ; preds = %59, %46
  br label %82

82:                                               ; preds = %81
  %83 = load i32, i32* %3, align 4
  %84 = add nsw i32 %83, 1
  store i32 %84, i32* %3, align 4
  br label %40

85:                                               ; preds = %40
  br label %86

86:                                               ; preds = %85
  %87 = load i32, i32* %2, align 4
  %88 = add nsw i32 %87, 1
  store i32 %88, i32* %2, align 4
  br label %35

89:                                               ; preds = %35
  store i32 0, i32* %2, align 4
  br label %90

90:                                               ; preds = %116, %89
  %91 = load i32, i32* %2, align 4
  %92 = load i32, i32* %1, align 4
  %93 = icmp slt i32 %91, %92
  br i1 %93, label %94, label %119

94:                                               ; preds = %90
  %95 = load i32, i32* %2, align 4
  %96 = sext i32 %95 to i64
  %97 = getelementptr inbounds [1000 x [50 x i8]], [1000 x [50 x i8]]* %5, i64 0, i64 %96
  %98 = getelementptr inbounds [50 x i8], [50 x i8]* %97, i64 0, i64 0
  %99 = call i64 @strlen(i8* %98) #3
  %100 = trunc i64 %99 to i32
  store i32 %100, i32* %4, align 4
  %101 = load i32, i32* %4, align 4
  %102 = load i32*, i32** %7, align 8
  %103 = load i32, i32* %1, align 4
  %104 = sext i32 %103 to i64
  %105 = getelementptr inbounds i32, i32* %102, i64 %104
  %106 = getelementptr inbounds i32, i32* %105, i64 -1
  %107 = load i32, i32* %106, align 4
  %108 = icmp eq i32 %101, %107
  br i1 %108, label %109, label %115

109:                                              ; preds = %94
  %110 = load i32, i32* %2, align 4
  %111 = sext i32 %110 to i64
  %112 = getelementptr inbounds [1000 x [50 x i8]], [1000 x [50 x i8]]* %5, i64 0, i64 %111
  %113 = getelementptr inbounds [50 x i8], [50 x i8]* %112, i64 0, i64 0
  %114 = call i32 (i8*, ...) @printf(i8* getelementptr inbounds ([4 x i8], [4 x i8]* @.str.2, i64 0, i64 0), i8* %113)
  br label %119

115:                                              ; preds = %94
  br label %116

116:                                              ; preds = %115
  %117 = load i32, i32* %2, align 4
  %118 = add nsw i32 %117, 1
  store i32 %118, i32* %2, align 4
  br label %90

119:                                              ; preds = %109, %90
  store i32 0, i32* %2, align 4
  br label %120

120:                                              ; preds = %143, %119
  %121 = load i32, i32* %2, align 4
  %122 = load i32, i32* %1, align 4
  %123 = icmp slt i32 %121, %122
  br i1 %123, label %124, label %146

124:                                              ; preds = %120
  %125 = load i32, i32* %2, align 4
  %126 = sext i32 %125 to i64
  %127 = getelementptr inbounds [1000 x [50 x i8]], [1000 x [50 x i8]]* %5, i64 0, i64 %126
  %128 = getelementptr inbounds [50 x i8], [50 x i8]* %127, i64 0, i64 0
  %129 = call i64 @strlen(i8* %128) #3
  %130 = trunc i64 %129 to i32
  store i32 %130, i32* %4, align 4
  %131 = load i32, i32* %4, align 4
  %132 = load i32*, i32** %7, align 8
  %133 = getelementptr inbounds i32, i32* %132, i64 0
  %134 = load i32, i32* %133, align 4
  %135 = icmp eq i32 %131, %134
  br i1 %135, label %136, label %142

136:                                              ; preds = %124
  %137 = load i32, i32* %2, align 4
  %138 = sext i32 %137 to i64
  %139 = getelementptr inbounds [1000 x [50 x i8]], [1000 x [50 x i8]]* %5, i64 0, i64 %138
  %140 = getelementptr inbounds [50 x i8], [50 x i8]* %139, i64 0, i64 0
  %141 = call i32 (i8*, ...) @printf(i8* getelementptr inbounds ([3 x i8], [3 x i8]* @.str.1, i64 0, i64 0), i8* %140)
  br label %146

142:                                              ; preds = %124
  br label %143

143:                                              ; preds = %142
  %144 = load i32, i32* %2, align 4
  %145 = add nsw i32 %144, 1
  store i32 %145, i32* %2, align 4
  br label %120

146:                                              ; preds = %136, %120
  ret void
}

declare dso_local i32 @__isoc99_scanf(i8*, ...) #1

; Function Attrs: nounwind readonly
declare dso_local i64 @strlen(i8*) #2

declare dso_local i32 @printf(i8*, ...) #1


!llvm.module.flags = !{!0}
!llvm.ident = !{!1}

!0 = !{i32 1, !"wchar_size", i32 4}
!1 = !{!"clang version 10.0.0-4ubuntu1 "}
